target datalayout = "e-m:e-p270:32:32-p271:32:32-p272:64:64-i64:64-i128:128-f80:128-n8:16:32:64-S128"
target triple = "x86_64-pc-linux-gnu"

%struct.anon = type { i32, [0 x i8] }
%struct.ArrayType = type { i32, i32, i32, i32 }
%struct.AclItem = type { i32, i32, i64 }

@.str.1 = private unnamed_addr constant [6 x i8] c"acl.c\00", align 1
@.str.37 = private unnamed_addr constant [17 x i8] c"invalid size: %d\00", align 1
@__func__.allocacl = private unnamed_addr constant [9 x i8] c"allocacl\00", align 1

; Function Attrs: nounwind uwtable
define internal zeroext i1 @aclitem_match(ptr noundef %0, ptr noundef %1) #0 {
  %3 = alloca ptr, align 8
  %4 = alloca ptr, align 8
  store ptr %0, ptr %3, align 8
  store ptr %1, ptr %4, align 8
  %5 = load ptr, ptr %3, align 8
  %6 = getelementptr inbounds nuw %struct.AclItem, ptr %5, i32 0, i32 0
  %7 = load i32, ptr %6, align 8
  %8 = load ptr, ptr %4, align 8
  %9 = getelementptr inbounds nuw %struct.AclItem, ptr %8, i32 0, i32 0
  %10 = load i32, ptr %9, align 8
  %11 = icmp eq i32 %7, %10
  br i1 %11, label %12, label %20

12:                                               ; preds = %2
  %13 = load ptr, ptr %3, align 8
  %14 = getelementptr inbounds nuw %struct.AclItem, ptr %13, i32 0, i32 1
  %15 = load i32, ptr %14, align 4
  %16 = load ptr, ptr %4, align 8
  %17 = getelementptr inbounds nuw %struct.AclItem, ptr %16, i32 0, i32 1
  %18 = load i32, ptr %17, align 4
  %19 = icmp eq i32 %15, %18
  br label %20

20:                                               ; preds = %12, %2
  %21 = phi i1 [ false, %2 ], [ %19, %12 ]
  ret i1 %21
}

; Function Attrs: nounwind uwtable
define internal ptr @allocacl(i32 noundef %0) #0 {
  %2 = alloca i32, align 4
  %3 = alloca ptr, align 8
  %4 = alloca i64, align 8
  store i32 %0, ptr %2, align 4
  call void @llvm.lifetime.start.p0(i64 8, ptr %3) #9
  call void @llvm.lifetime.start.p0(i64 8, ptr %4) #9
  %5 = load i32, ptr %2, align 4
  %6 = icmp slt i32 %5, 0
  br i1 %6, label %7, label %19

7:                                                ; preds = %1
  br label %8

8:                                                ; preds = %7
  br i1 true, label %9, label %11

9:                                                ; preds = %8
  %10 = call zeroext i1 @errstart_cold(i32 noundef 21, ptr noundef null) #10
  br i1 %10, label %13, label %16

11:                                               ; preds = %8
  %12 = call zeroext i1 @errstart(i32 noundef 21, ptr noundef null)
  br i1 %12, label %13, label %16

13:                                               ; preds = %11, %9
  %14 = load i32, ptr %2, align 4
  %15 = call i32 (ptr, ...) @errmsg_internal(ptr noundef @.str.37, i32 noundef %14)
  call void @errfinish(ptr noundef @.str.1, i32 noundef 416, ptr noundef @__func__.allocacl)
  br label %16

16:                                               ; preds = %13, %11, %9
  unreachable

17:                                               ; No predecessors!
  br label %18

18:                                               ; preds = %17
  br label %19

19:                                               ; preds = %18, %1
  %20 = load i32, ptr %2, align 4
  %21 = sext i32 %20 to i64
  %22 = mul i64 %21, 16
  %23 = add i64 24, %22
  store i64 %23, ptr %4, align 8
  %24 = load i64, ptr %4, align 8
  %25 = call ptr @palloc0(i64 noundef %24)
  store ptr %25, ptr %3, align 8
  %26 = load i64, ptr %4, align 8
  %27 = trunc i64 %26 to i32
  %28 = shl i32 %27, 2
  %29 = load ptr, ptr %3, align 8
  %30 = getelementptr inbounds nuw %struct.anon, ptr %29, i32 0, i32 0
  store i32 %28, ptr %30, align 4
  %31 = load ptr, ptr %3, align 8
  %32 = getelementptr inbounds nuw %struct.ArrayType, ptr %31, i32 0, i32 1
  store i32 1, ptr %32, align 4
  %33 = load ptr, ptr %3, align 8
  %34 = getelementptr inbounds nuw %struct.ArrayType, ptr %33, i32 0, i32 2
  store i32 0, ptr %34, align 4
  %35 = load ptr, ptr %3, align 8
  %36 = getelementptr inbounds nuw %struct.ArrayType, ptr %35, i32 0, i32 3
  store i32 1033, ptr %36, align 4
  %37 = load ptr, ptr %3, align 8
  %38 = getelementptr inbounds nuw i8, ptr %37, i64 16
  %39 = load ptr, ptr %3, align 8
  %40 = getelementptr inbounds nuw %struct.ArrayType, ptr %39, i32 0, i32 1
  %41 = load i32, ptr %40, align 4
  %42 = sext i32 %41 to i64
  %43 = mul i64 4, %42
  %44 = getelementptr inbounds nuw i8, ptr %38, i64 %43
  %45 = getelementptr inbounds i32, ptr %44, i64 0
  store i32 1, ptr %45, align 4
  %46 = load i32, ptr %2, align 4
  %47 = load ptr, ptr %3, align 8
  %48 = getelementptr inbounds nuw i8, ptr %47, i64 16
  %49 = getelementptr inbounds i32, ptr %48, i64 0
  store i32 %46, ptr %49, align 4
  %50 = load ptr, ptr %3, align 8
  call void @llvm.lifetime.end.p0(i64 8, ptr %4) #9
  call void @llvm.lifetime.end.p0(i64 8, ptr %3) #9
  ret ptr %50
}

; Function Attrs: nounwind uwtable
define dso_local ptr @aclnewowner(ptr noundef %0, i32 noundef %1, i32 noundef %2) #0 {
  %4 = alloca ptr, align 8
  %5 = alloca i32, align 4
  %6 = alloca i32, align 4
  %7 = alloca ptr, align 8
  %8 = alloca ptr, align 8
  %9 = alloca ptr, align 8
  %10 = alloca ptr, align 8
  %11 = alloca ptr, align 8
  %12 = alloca ptr, align 8
  %13 = alloca i8, align 1
  %14 = alloca i32, align 4
  %15 = alloca i32, align 4
  %16 = alloca i32, align 4
  %17 = alloca i32, align 4
  store ptr %0, ptr %4, align 8
  store i32 %1, ptr %5, align 4
  store i32 %2, ptr %6, align 4
  call void @llvm.lifetime.start.p0(i64 8, ptr %7) #9
  call void @llvm.lifetime.start.p0(i64 8, ptr %8) #9
  call void @llvm.lifetime.start.p0(i64 8, ptr %9) #9
  call void @llvm.lifetime.start.p0(i64 8, ptr %10) #9
  call void @llvm.lifetime.start.p0(i64 8, ptr %11) #9
  call void @llvm.lifetime.start.p0(i64 8, ptr %12) #9
  call void @llvm.lifetime.start.p0(i64 1, ptr %13) #9
  store i8 0, ptr %13, align 1
  call void @llvm.lifetime.start.p0(i64 4, ptr %14) #9
  call void @llvm.lifetime.start.p0(i64 4, ptr %15) #9
  call void @llvm.lifetime.start.p0(i64 4, ptr %16) #9
  call void @llvm.lifetime.start.p0(i64 4, ptr %17) #9
  %18 = load ptr, ptr %4, align 8
  call void @check_acl(ptr noundef %18)
  %19 = load ptr, ptr %4, align 8
  %20 = getelementptr inbounds nuw i8, ptr %19, i64 16
  %21 = getelementptr inbounds i32, ptr %20, i64 0
  %22 = load i32, ptr %21, align 4
  store i32 %22, ptr %17, align 4
  %23 = load ptr, ptr %4, align 8
  %24 = load ptr, ptr %4, align 8
  %25 = getelementptr inbounds nuw %struct.ArrayType, ptr %24, i32 0, i32 2
  %26 = load i32, ptr %25, align 4
  %27 = icmp ne i32 %26, 0
  br i1 %27, label %28, label %33

28:                                               ; preds = %3
  %29 = load ptr, ptr %4, align 8
  %30 = getelementptr inbounds nuw %struct.ArrayType, ptr %29, i32 0, i32 2
  %31 = load i32, ptr %30, align 4
  %32 = sext i32 %31 to i64
  br label %42

33:                                               ; preds = %3
  %34 = load ptr, ptr %4, align 8
  %35 = getelementptr inbounds nuw %struct.ArrayType, ptr %34, i32 0, i32 1
  %36 = load i32, ptr %35, align 4
  %37 = sext i32 %36 to i64
  %38 = mul i64 8, %37
  %39 = add i64 16, %38
  %40 = add i64 %39, 7
  %41 = and i64 %40, -8
  br label %42

42:                                               ; preds = %33, %28
  %43 = phi i64 [ %32, %28 ], [ %41, %33 ]
  %44 = getelementptr inbounds nuw i8, ptr %23, i64 %43
  store ptr %44, ptr %9, align 8
  %45 = load i32, ptr %17, align 4
  %46 = call ptr @allocacl(i32 noundef %45)
  store ptr %46, ptr %7, align 8
  %47 = load ptr, ptr %7, align 8
  %48 = load ptr, ptr %7, align 8
  %49 = getelementptr inbounds nuw %struct.ArrayType, ptr %48, i32 0, i32 2
  %50 = load i32, ptr %49, align 4
  %51 = icmp ne i32 %50, 0
  br i1 %51, label %52, label %57

52:                                               ; preds = %42
  %53 = load ptr, ptr %7, align 8
  %54 = getelementptr inbounds nuw %struct.ArrayType, ptr %53, i32 0, i32 2
  %55 = load i32, ptr %54, align 4
  %56 = sext i32 %55 to i64
  br label %66

57:                                               ; preds = %42
  %58 = load ptr, ptr %7, align 8
  %59 = getelementptr inbounds nuw %struct.ArrayType, ptr %58, i32 0, i32 1
  %60 = load i32, ptr %59, align 4
  %61 = sext i32 %60 to i64
  %62 = mul i64 8, %61
  %63 = add i64 16, %62
  %64 = add i64 %63, 7
  %65 = and i64 %64, -8
  br label %66

66:                                               ; preds = %57, %52
  %67 = phi i64 [ %56, %52 ], [ %65, %57 ]
  %68 = getelementptr inbounds nuw i8, ptr %47, i64 %67
  store ptr %68, ptr %8, align 8
  %69 = load ptr, ptr %8, align 8
  %70 = load ptr, ptr %9, align 8
  %71 = load i32, ptr %17, align 4
  %72 = sext i32 %71 to i64
  %73 = mul i64 %72, 16
  call void @llvm.memcpy.p0.p0.i64(ptr align 8 %69, ptr align 8 %70, i64 %73, i1 false)
  store i32 0, ptr %14, align 4
  %74 = load ptr, ptr %8, align 8
  store ptr %74, ptr %10, align 8
  br label %75

75:                                               ; preds = %116, %66
  %76 = load i32, ptr %14, align 4
  %77 = load i32, ptr %17, align 4
  %78 = icmp slt i32 %76, %77
  br i1 %78, label %79, label %121

79:                                               ; preds = %75
  %80 = load ptr, ptr %10, align 8
  %81 = getelementptr inbounds nuw %struct.AclItem, ptr %80, i32 0, i32 1
  %82 = load i32, ptr %81, align 4
  %83 = load i32, ptr %5, align 4
  %84 = icmp eq i32 %82, %83
  br i1 %84, label %85, label %89

85:                                               ; preds = %79
  %86 = load i32, ptr %6, align 4
  %87 = load ptr, ptr %10, align 8
  %88 = getelementptr inbounds nuw %struct.AclItem, ptr %87, i32 0, i32 1
  store i32 %86, ptr %88, align 4
  br label %97

89:                                               ; preds = %79
  %90 = load ptr, ptr %10, align 8
  %91 = getelementptr inbounds nuw %struct.AclItem, ptr %90, i32 0, i32 1
  %92 = load i32, ptr %91, align 4
  %93 = load i32, ptr %6, align 4
  %94 = icmp eq i32 %92, %93
  br i1 %94, label %95, label %96

95:                                               ; preds = %89
  store i8 1, ptr %13, align 1
  br label %96

96:                                               ; preds = %95, %89
  br label %97

97:                                               ; preds = %96, %85
  %98 = load ptr, ptr %10, align 8
  %99 = getelementptr inbounds nuw %struct.AclItem, ptr %98, i32 0, i32 0
  %100 = load i32, ptr %99, align 8
  %101 = load i32, ptr %5, align 4
  %102 = icmp eq i32 %100, %101
  br i1 %102, label %103, label %107

103:                                              ; preds = %97
  %104 = load i32, ptr %6, align 4
  %105 = load ptr, ptr %10, align 8
  %106 = getelementptr inbounds nuw %struct.AclItem, ptr %105, i32 0, i32 0
  store i32 %104, ptr %106, align 8
  br label %115

107:                                              ; preds = %97
  %108 = load ptr, ptr %10, align 8
  %109 = getelementptr inbounds nuw %struct.AclItem, ptr %108, i32 0, i32 0
  %110 = load i32, ptr %109, align 8
  %111 = load i32, ptr %6, align 4
  %112 = icmp eq i32 %110, %111
  br i1 %112, label %113, label %114

113:                                              ; preds = %107
  store i8 1, ptr %13, align 1
  br label %114

114:                                              ; preds = %113, %107
  br label %115

115:                                              ; preds = %114, %103
  br label %116

116:                                              ; preds = %115
  %117 = load i32, ptr %14, align 4
  %118 = add i32 %117, 1
  store i32 %118, ptr %14, align 4
  %119 = load ptr, ptr %10, align 8
  %120 = getelementptr inbounds nuw %struct.AclItem, ptr %119, i32 1
  store ptr %120, ptr %10, align 8
  br label %75, !llvm.loop !17

121:                                              ; preds = %75
  %122 = load i8, ptr %13, align 1, !range !12, !noundef !13
  %123 = trunc i8 %122 to i1
  br i1 %123, label %124, label %199

124:                                              ; preds = %121
  store i32 0, ptr %14, align 4
  store i32 0, ptr %16, align 4
  %125 = load ptr, ptr %8, align 8
  store ptr %125, ptr %12, align 8
  br label %126

126:                                              ; preds = %181, %124
  %127 = load i32, ptr %16, align 4
  %128 = load i32, ptr %17, align 4
  %129 = icmp slt i32 %127, %128
  br i1 %129, label %130, label %186

130:                                              ; preds = %126
  %131 = load ptr, ptr %12, align 8
  %132 = getelementptr inbounds nuw %struct.AclItem, ptr %131, i32 0, i32 2
  %133 = load i64, ptr %132, align 8
  %134 = icmp eq i64 %133, 0
  br i1 %134, label %135, label %136

135:                                              ; preds = %130
  br label %181

136:                                              ; preds = %130
  %137 = load i32, ptr %16, align 4
  %138 = add i32 %137, 1
  store i32 %138, ptr %15, align 4
  %139 = load ptr, ptr %12, align 8
  %140 = getelementptr inbounds %struct.AclItem, ptr %139, i64 1
  store ptr %140, ptr %11, align 8
  br label %141

141:                                              ; preds = %168, %136
  %142 = load i32, ptr %15, align 4
  %143 = load i32, ptr %17, align 4
  %144 = icmp slt i32 %142, %143
  br i1 %144, label %145, label %173

145:                                              ; preds = %141
  %146 = load ptr, ptr %11, align 8
  %147 = getelementptr inbounds nuw %struct.AclItem, ptr %146, i32 0, i32 2
  %148 = load i64, ptr %147, align 8
  %149 = icmp eq i64 %148, 0
  br i1 %149, label %150, label %151

150:                                              ; preds = %145
  br label %168

151:                                              ; preds = %145
  %152 = load ptr, ptr %12, align 8
  %153 = load ptr, ptr %11, align 8
  %154 = call zeroext i1 @aclitem_match(ptr noundef %152, ptr noundef %153)
  br i1 %154, label %155, label %167

155:                                              ; preds = %151
  %156 = load ptr, ptr %12, align 8
  %157 = getelementptr inbounds nuw %struct.AclItem, ptr %156, i32 0, i32 2
  %158 = load i64, ptr %157, align 8
  %159 = load ptr, ptr %11, align 8
  %160 = getelementptr inbounds nuw %struct.AclItem, ptr %159, i32 0, i32 2
  %161 = load i64, ptr %160, align 8
  %162 = or i64 %158, %161
  %163 = load ptr, ptr %12, align 8
  %164 = getelementptr inbounds nuw %struct.AclItem, ptr %163, i32 0, i32 2
  store i64 %162, ptr %164, align 8
  %165 = load ptr, ptr %11, align 8
  %166 = getelementptr inbounds nuw %struct.AclItem, ptr %165, i32 0, i32 2
  store i64 0, ptr %166, align 8
  br label %167

167:                                              ; preds = %155, %151
  br label %168

168:                                              ; preds = %167, %150
  %169 = load i32, ptr %15, align 4
  %170 = add i32 %169, 1
  store i32 %170, ptr %15, align 4
  %171 = load ptr, ptr %11, align 8
  %172 = getelementptr inbounds nuw %struct.AclItem, ptr %171, i32 1
  store ptr %172, ptr %11, align 8
  br label %141, !llvm.loop !18

173:                                              ; preds = %141
  %174 = load ptr, ptr %8, align 8
  %175 = load i32, ptr %14, align 4
  %176 = sext i32 %175 to i64
  %177 = getelementptr inbounds %struct.AclItem, ptr %174, i64 %176
  %178 = load ptr, ptr %12, align 8
  call void @llvm.memcpy.p0.p0.i64(ptr align 8 %177, ptr align 8 %178, i64 16, i1 false)
  %179 = load i32, ptr %14, align 4
  %180 = add i32 %179, 1
  store i32 %180, ptr %14, align 4
  br label %181

181:                                              ; preds = %173, %135
  %182 = load i32, ptr %16, align 4
  %183 = add i32 %182, 1
  store i32 %183, ptr %16, align 4
  %184 = load ptr, ptr %12, align 8
  %185 = getelementptr inbounds nuw %struct.AclItem, ptr %184, i32 1
  store ptr %185, ptr %12, align 8
  br label %126, !llvm.loop !19

186:                                              ; preds = %126
  %187 = load i32, ptr %14, align 4
  %188 = load ptr, ptr %7, align 8
  %189 = getelementptr inbounds nuw i8, ptr %188, i64 16
  %190 = getelementptr inbounds i32, ptr %189, i64 0
  store i32 %187, ptr %190, align 4
  %191 = load i32, ptr %14, align 4
  %192 = sext i32 %191 to i64
  %193 = mul i64 %192, 16
  %194 = add i64 24, %193
  %195 = trunc i64 %194 to i32
  %196 = shl i32 %195, 2
  %197 = load ptr, ptr %7, align 8
  %198 = getelementptr inbounds nuw %struct.anon, ptr %197, i32 0, i32 0
  store i32 %196, ptr %198, align 4
  br label %199

199:                                              ; preds = %186, %121
  %200 = load ptr, ptr %7, align 8
  call void @llvm.lifetime.end.p0(i64 4, ptr %17) #9
  call void @llvm.lifetime.end.p0(i64 4, ptr %16) #9
  call void @llvm.lifetime.end.p0(i64 4, ptr %15) #9
  call void @llvm.lifetime.end.p0(i64 4, ptr %14) #9
  call void @llvm.lifetime.end.p0(i64 1, ptr %13) #9
  call void @llvm.lifetime.end.p0(i64 8, ptr %12) #9
  call void @llvm.lifetime.end.p0(i64 8, ptr %11) #9
  call void @llvm.lifetime.end.p0(i64 8, ptr %10) #9
  call void @llvm.lifetime.end.p0(i64 8, ptr %9) #9
  call void @llvm.lifetime.end.p0(i64 8, ptr %8) #9
  call void @llvm.lifetime.end.p0(i64 8, ptr %7) #9
  ret ptr %200
}