; Function Attrs: nounwind uwtable
define dso_local noundef ptr @aclnewowner(ptr noundef readonly captures(none) %0, i32 noundef %1, i32 noundef %2) local_unnamed_addr #0 {
  tail call fastcc void @check_acl(ptr noundef %0)
  %4 = getelementptr inbounds nuw i8, ptr %0, i64 16
  %5 = load i32, ptr %4, align 4
  %6 = getelementptr inbounds nuw i8, ptr %0, i64 8
  %7 = load i32, ptr %6, align 4
  %.not = icmp eq i32 %7, 0
  br i1 %.not, label %10, label %8

8:                                                ; preds = %3
  %9 = sext i32 %7 to i64
  br label %17

10:                                               ; preds = %3
  %11 = getelementptr inbounds nuw i8, ptr %0, i64 4
  %12 = load i32, ptr %11, align 4
  %13 = sext i32 %12 to i64
  %14 = shl nsw i64 %13, 3
  %15 = add nsw i64 %14, 23
  %16 = and i64 %15, -8
  br label %17

17:                                               ; preds = %10, %8
  %18 = phi i64 [ %9, %8 ], [ %16, %10 ]
  %19 = icmp slt i32 %5, 0
  br i1 %19, label %20, label %23

20:                                               ; preds = %17
  %21 = tail call zeroext i1 @errstart_cold(i32 noundef 21, ptr noundef null) #15
  tail call void @llvm.assume(i1 %21)
  %22 = tail call i32 (ptr, ...) @errmsg_internal(ptr noundef nonnull @.str.37, i32 noundef %5) #14
  tail call void @errfinish(ptr noundef nonnull @.str.1, i32 noundef 416, ptr noundef nonnull @__func__.allocacl) #14
  unreachable

23:                                               ; preds = %17
  %24 = getelementptr inbounds nuw i8, ptr %0, i64 %18
  %25 = zext nneg i32 %5 to i64
  %26 = shl nuw nsw i64 %25, 4
  %27 = add nuw nsw i64 %26, 24
  %28 = tail call ptr @palloc0(i64 noundef %27) #14
  %29 = trunc i64 %27 to i32
  %30 = shl i32 %29, 2
  store i32 %30, ptr %28, align 4
  %31 = getelementptr inbounds nuw i8, ptr %28, i64 4
  store i32 1, ptr %31, align 4
  %32 = getelementptr inbounds nuw i8, ptr %28, i64 8
  store i32 0, ptr %32, align 4
  %33 = getelementptr inbounds nuw i8, ptr %28, i64 12
  store i32 1033, ptr %33, align 4
  %34 = getelementptr inbounds nuw i8, ptr %28, i64 16
  %35 = getelementptr inbounds nuw i8, ptr %28, i64 20
  store i32 1, ptr %35, align 4
  store i32 %5, ptr %34, align 4
  %36 = getelementptr inbounds nuw i8, ptr %28, i64 24
  tail call void @llvm.memcpy.p0.p0.i64(ptr nonnull align 8 %36, ptr align 8 %24, i64 %26, i1 false)
  %.not92 = icmp eq i32 %5, 0
  br i1 %.not92, label %.critedge, label %.lr.ph

.lr.ph:                                           ; preds = %23, %49
  %.077 = phi ptr [ %51, %49 ], [ %36, %23 ]
  %.06176 = phi i32 [ %50, %49 ], [ 0, %23 ]
  %.06275 = phi i1 [ %.264, %49 ], [ false, %23 ]
  %37 = getelementptr inbounds nuw i8, ptr %.077, i64 4
  %38 = load i32, ptr %37, align 4
  %39 = icmp eq i32 %38, %1
  br i1 %39, label %40, label %41

40:                                               ; preds = %.lr.ph
  store i32 %2, ptr %37, align 4
  br label %43

41:                                               ; preds = %.lr.ph
  %42 = icmp eq i32 %38, %2
  %spec.select = select i1 %42, i1 true, i1 %.06275
  br label %43

43:                                               ; preds = %41, %40
  %.163 = phi i1 [ %.06275, %40 ], [ %spec.select, %41 ]
  %44 = load i32, ptr %.077, align 8
  %45 = icmp eq i32 %44, %1
  br i1 %45, label %46, label %47

46:                                               ; preds = %43
  store i32 %2, ptr %.077, align 8
  br label %49

47:                                               ; preds = %43
  %48 = icmp eq i32 %44, %2
  %spec.select73 = select i1 %48, i1 true, i1 %.163
  br label %49

49:                                               ; preds = %47, %46
  %.264 = phi i1 [ %.163, %46 ], [ %spec.select73, %47 ]
  %50 = add nuw nsw i32 %.06176, 1
  %51 = getelementptr inbounds nuw i8, ptr %.077, i64 16
  %exitcond.not = icmp eq i32 %50, %5
  br i1 %exitcond.not, label %._crit_edge, label %.lr.ph, !llvm.loop !15

._crit_edge:                                      ; preds = %49
  br i1 %.264, label %.lr.ph89, label %.critedge

.lr.ph89:                                         ; preds = %._crit_edge, %.lr.ph89._crit_edge
  %.05988 = phi i32 [ %.pre, %.lr.ph89._crit_edge ], [ 0, %._crit_edge ]
  %.187 = phi i32 [ %.2, %.lr.ph89._crit_edge ], [ 0, %._crit_edge ]
  %.06585 = phi ptr [ %75, %.lr.ph89._crit_edge ], [ %36, %._crit_edge ]
  %52 = getelementptr inbounds nuw i8, ptr %.06585, i64 8
  %53 = load i64, ptr %52, align 8
  %54 = icmp eq i64 %53, 0
  %.pre = add nuw nsw i32 %.05988, 1
  br i1 %54, label %.lr.ph89._crit_edge, label %.preheader

.preheader:                                       ; preds = %.lr.ph89
  %55 = icmp slt i32 %.pre, %5
  br i1 %55, label %.lr.ph83, label %._crit_edge84

.lr.ph83:                                         ; preds = %.preheader
  %56 = getelementptr inbounds nuw i8, ptr %.06585, i64 4
  br label %57

57:                                               ; preds = %.lr.ph83, %aclitem_match.exit.thread
  %.06082 = phi i32 [ %.pre, %.lr.ph83 ], [ %.060, %aclitem_match.exit.thread ]
  %.065.pn80 = phi ptr [ %.06585, %.lr.ph83 ], [ %.06681, %aclitem_match.exit.thread ]
  %.06681 = getelementptr inbounds nuw i8, ptr %.065.pn80, i64 16
  %58 = getelementptr inbounds nuw i8, ptr %.065.pn80, i64 24
  %59 = load i64, ptr %58, align 8
  %60 = icmp eq i64 %59, 0
  br i1 %60, label %aclitem_match.exit.thread, label %61

61:                                               ; preds = %57
  %62 = load i32, ptr %.06585, align 8
  %63 = load i32, ptr %.06681, align 8
  %64 = icmp eq i32 %62, %63
  br i1 %64, label %aclitem_match.exit, label %aclitem_match.exit.thread

aclitem_match.exit:                               ; preds = %61
  %65 = load i32, ptr %56, align 4
  %66 = getelementptr inbounds nuw i8, ptr %.065.pn80, i64 20
  %67 = load i32, ptr %66, align 4
  %68 = icmp eq i32 %65, %67
  br i1 %68, label %69, label %aclitem_match.exit.thread

69:                                               ; preds = %aclitem_match.exit
  %70 = load i64, ptr %52, align 8
  %71 = or i64 %70, %59
  store i64 %71, ptr %52, align 8
  store i64 0, ptr %58, align 8
  br label %aclitem_match.exit.thread

aclitem_match.exit.thread:                        ; preds = %61, %aclitem_match.exit, %69, %57
  %.060 = add nuw nsw i32 %.06082, 1
  %exitcond93.not = icmp eq i32 %.060, %5
  br i1 %exitcond93.not, label %._crit_edge84, label %57, !llvm.loop !16

._crit_edge84:                                    ; preds = %aclitem_match.exit.thread, %.preheader
  %72 = sext i32 %.187 to i64
  %73 = getelementptr inbounds %struct.AclItem, ptr %36, i64 %72
  tail call void @llvm.memcpy.p0.p0.i64(ptr noundef nonnull align 8 dereferenceable(16) %73, ptr noundef nonnull align 8 dereferenceable(16) %.06585, i64 16, i1 false)
  %74 = add i32 %.187, 1
  br label %.lr.ph89._crit_edge

.lr.ph89._crit_edge:                              ; preds = %.lr.ph89, %._crit_edge84
  %.2 = phi i32 [ %74, %._crit_edge84 ], [ %.187, %.lr.ph89 ]
  %75 = getelementptr inbounds nuw i8, ptr %.06585, i64 16
  %exitcond94.not = icmp eq i32 %.pre, %5
  br i1 %exitcond94.not, label %._crit_edge90, label %.lr.ph89, !llvm.loop !17

._crit_edge90:                                    ; preds = %.lr.ph89._crit_edge
  store i32 %.2, ptr %34, align 4
  %76 = shl i32 %.2, 6
  %77 = add i32 %76, 96
  store i32 %77, ptr %28, align 4
  br label %.critedge

.critedge:                                        ; preds = %23, %._crit_edge90, %._crit_edge
  ret ptr %28
}